; Function Attrs: nofree norecurse nounwind memory(argmem: readwrite) uwtable
define i64 @av_strlcpy(ptr noundef writeonly captures(none) %0, ptr noundef readonly captures(none) %1, i64 noundef %2) local_unnamed_addr #5 {
  %4 = icmp ugt i64 %2, 1
  br i1 %4, label %.lr.ph.preheader, label %.critedge

.lr.ph.preheader:                                 ; preds = %3
  %5 = add i64 %2, -1
  %6 = load i8, ptr %1, align 1, !tbaa !4
  %.not48 = icmp eq i8 %6, 0
  br i1 %.not48, label %.critedge, label %.lr.ph51

.lr.ph:                                           ; preds = %.lr.ph51
  %7 = load i8, ptr %10, align 1, !tbaa !4
  %.not = icmp eq i8 %7, 0
  br i1 %.not, label %.critedge, label %.lr.ph51, !llvm.loop !15

.lr.ph51:                                         ; preds = %.lr.ph.preheader, %.lr.ph
  %8 = phi i8 [ %7, %.lr.ph ], [ %6, %.lr.ph.preheader ]
  %.0101350 = phi ptr [ %10, %.lr.ph ], [ %1, %.lr.ph.preheader ]
  %.091449 = phi ptr [ %11, %.lr.ph ], [ %0, %.lr.ph.preheader ]
  %9 = phi i64 [ %12, %.lr.ph ], [ 1, %.lr.ph.preheader ]
  %10 = getelementptr inbounds nuw i8, ptr %.0101350, i64 1
  %11 = getelementptr inbounds nuw i8, ptr %.091449, i64 1
  store i8 %8, ptr %.091449, align 1, !tbaa !4
  %12 = add nuw i64 %9, 1
  %exitcond.not = icmp eq i64 %12, %2
  br i1 %exitcond.not, label %.critedge.thread, label %.lr.ph, !llvm.loop !15

.critedge:                                        ; preds = %.lr.ph, %.lr.ph.preheader, %3
  %.010.lcssa = phi ptr [ %1, %3 ], [ %1, %.lr.ph.preheader ], [ %10, %.lr.ph ]
  %.09.lcssa = phi ptr [ %0, %3 ], [ %0, %.lr.ph.preheader ], [ %11, %.lr.ph ]
  %.0.lcssa = phi i64 [ 0, %3 ], [ 0, %.lr.ph.preheader ], [ %9, %.lr.ph ]
  %.lcssa = phi i64 [ 1, %3 ], [ 1, %.lr.ph.preheader ], [ %12, %.lr.ph ]
  %.not12 = icmp ugt i64 %.lcssa, %2
  br i1 %.not12, label %13, label %.critedge.thread

.critedge.thread:                                 ; preds = %.lr.ph51, %.critedge
  %.0.lcssa32 = phi i64 [ %.0.lcssa, %.critedge ], [ %5, %.lr.ph51 ]
  %.09.lcssa31 = phi ptr [ %.09.lcssa, %.critedge ], [ %11, %.lr.ph51 ]
  %.010.lcssa29 = phi ptr [ %.010.lcssa, %.critedge ], [ %10, %.lr.ph51 ]
  store i8 0, ptr %.09.lcssa31, align 1, !tbaa !4
  br label %13

13:                                               ; preds = %.critedge.thread, %.critedge
  %.0.lcssa33 = phi i64 [ %.0.lcssa32, %.critedge.thread ], [ %.0.lcssa, %.critedge ]
  %.010.lcssa30 = phi ptr [ %.010.lcssa29, %.critedge.thread ], [ %.010.lcssa, %.critedge ]
  %14 = tail call i64 @strlen(ptr noundef nonnull dereferenceable(1) %.010.lcssa30) #18
  %15 = add i64 %14, %.0.lcssa33
  ret i64 %15
}